target datalayout = "e-m:e-p270:32:32-p271:32:32-p272:64:64-i64:64-i128:128-f80:128-n8:16:32:64-S128"
target triple = "x86_64-pc-linux-gnu"

%struct.DdHashTable = type { i32, i32, ptr, ptr, ptr, i32, i32, i32, i32, ptr }
%struct.DdHashItem = type { ptr, i64, ptr, [1 x ptr] }

; Function Attrs: nounwind uwtable
define void @cuddHashTableQuit(ptr noundef %0) #0 {
  %2 = alloca ptr, align 8
  %3 = alloca i32, align 4
  %4 = alloca ptr, align 8
  %5 = alloca ptr, align 8
  %6 = alloca ptr, align 8
  %7 = alloca ptr, align 8
  %8 = alloca i32, align 4
  store ptr %0, ptr %2, align 8, !tbaa !62
  call void @llvm.lifetime.start.p0(i64 4, ptr %3) #10
  call void @llvm.lifetime.start.p0(i64 8, ptr %4) #10
  %9 = load ptr, ptr %2, align 8, !tbaa !62
  %10 = getelementptr inbounds nuw %struct.DdHashTable, ptr %9, i32 0, i32 9
  %11 = load ptr, ptr %10, align 8, !tbaa !68
  store ptr %11, ptr %4, align 8, !tbaa !3
  call void @llvm.lifetime.start.p0(i64 8, ptr %5) #10
  call void @llvm.lifetime.start.p0(i64 8, ptr %6) #10
  call void @llvm.lifetime.start.p0(i64 8, ptr %7) #10
  call void @llvm.lifetime.start.p0(i64 4, ptr %8) #10
  %12 = load ptr, ptr %2, align 8, !tbaa !62
  %13 = getelementptr inbounds nuw %struct.DdHashTable, ptr %12, i32 0, i32 5
  %14 = load i32, ptr %13, align 8, !tbaa !72
  store i32 %14, ptr %8, align 4, !tbaa !8
  store i32 0, ptr %3, align 4, !tbaa !8
  br label %15

15:                                               ; preds = %39, %1
  %16 = load i32, ptr %3, align 4, !tbaa !8
  %17 = load i32, ptr %8, align 4, !tbaa !8
  %18 = icmp ult i32 %16, %17
  br i1 %18, label %19, label %42

19:                                               ; preds = %15
  %20 = load ptr, ptr %2, align 8, !tbaa !62
  %21 = getelementptr inbounds nuw %struct.DdHashTable, ptr %20, i32 0, i32 2
  %22 = load ptr, ptr %21, align 8, !tbaa !74
  %23 = load i32, ptr %3, align 4, !tbaa !8
  %24 = zext i32 %23 to i64
  %25 = getelementptr inbounds nuw ptr, ptr %22, i64 %24
  %26 = load ptr, ptr %25, align 8, !tbaa !77
  store ptr %26, ptr %5, align 8, !tbaa !77
  br label %27

27:                                               ; preds = %30, %19
  %28 = load ptr, ptr %5, align 8, !tbaa !77
  %29 = icmp ne ptr %28, null
  br i1 %29, label %30, label %38

30:                                               ; preds = %27
  %31 = load ptr, ptr %4, align 8, !tbaa !3
  %32 = load ptr, ptr %5, align 8, !tbaa !77
  %33 = getelementptr inbounds nuw %struct.DdHashItem, ptr %32, i32 0, i32 2
  %34 = load ptr, ptr %33, align 8, !tbaa !78
  call void @Cudd_RecursiveDeref(ptr noundef %31, ptr noundef %34)
  %35 = load ptr, ptr %5, align 8, !tbaa !77
  %36 = getelementptr inbounds nuw %struct.DdHashItem, ptr %35, i32 0, i32 0
  %37 = load ptr, ptr %36, align 8, !tbaa !80
  store ptr %37, ptr %5, align 8, !tbaa !77
  br label %27, !llvm.loop !81

38:                                               ; preds = %27
  br label %39

39:                                               ; preds = %38
  %40 = load i32, ptr %3, align 4, !tbaa !8
  %41 = add i32 %40, 1
  store i32 %41, ptr %3, align 4, !tbaa !8
  br label %15, !llvm.loop !82

42:                                               ; preds = %15
  %43 = load ptr, ptr %2, align 8, !tbaa !62
  %44 = getelementptr inbounds nuw %struct.DdHashTable, ptr %43, i32 0, i32 4
  %45 = load ptr, ptr %44, align 8, !tbaa !69
  store ptr %45, ptr %6, align 8, !tbaa !83
  br label %46

46:                                               ; preds = %58, %42
  %47 = load ptr, ptr %6, align 8, !tbaa !83
  %48 = icmp ne ptr %47, null
  br i1 %48, label %49, label %60

49:                                               ; preds = %46
  %50 = load ptr, ptr %6, align 8, !tbaa !83
  %51 = getelementptr inbounds ptr, ptr %50, i64 0
  %52 = load ptr, ptr %51, align 8, !tbaa !77
  store ptr %52, ptr %7, align 8, !tbaa !83
  %53 = load ptr, ptr %6, align 8, !tbaa !83
  %54 = icmp ne ptr %53, null
  br i1 %54, label %55, label %57

55:                                               ; preds = %49
  %56 = load ptr, ptr %6, align 8, !tbaa !83
  call void @free(ptr noundef %56) #10
  store ptr null, ptr %6, align 8, !tbaa !83
  br label %58

57:                                               ; preds = %49
  br label %58

58:                                               ; preds = %57, %55
  %59 = load ptr, ptr %7, align 8, !tbaa !83
  store ptr %59, ptr %6, align 8, !tbaa !83
  br label %46, !llvm.loop !84

60:                                               ; preds = %46
  %61 = load ptr, ptr %2, align 8, !tbaa !62
  %62 = getelementptr inbounds nuw %struct.DdHashTable, ptr %61, i32 0, i32 2
  %63 = load ptr, ptr %62, align 8, !tbaa !74
  %64 = icmp ne ptr %63, null
  br i1 %64, label %65, label %71

65:                                               ; preds = %60
  %66 = load ptr, ptr %2, align 8, !tbaa !62
  %67 = getelementptr inbounds nuw %struct.DdHashTable, ptr %66, i32 0, i32 2
  %68 = load ptr, ptr %67, align 8, !tbaa !74
  call void @free(ptr noundef %68) #10
  %69 = load ptr, ptr %2, align 8, !tbaa !62
  %70 = getelementptr inbounds nuw %struct.DdHashTable, ptr %69, i32 0, i32 2
  store ptr null, ptr %70, align 8, !tbaa !74
  br label %72

71:                                               ; preds = %60
  br label %72

72:                                               ; preds = %71, %65
  %73 = load ptr, ptr %2, align 8, !tbaa !62
  %74 = icmp ne ptr %73, null
  br i1 %74, label %75, label %77

75:                                               ; preds = %72
  %76 = load ptr, ptr %2, align 8, !tbaa !62
  call void @free(ptr noundef %76) #10
  store ptr null, ptr %2, align 8, !tbaa !62
  br label %78

77:                                               ; preds = %72
  br label %78

78:                                               ; preds = %77, %75
  call void @llvm.lifetime.end.p0(i64 4, ptr %8) #10
  call void @llvm.lifetime.end.p0(i64 8, ptr %7) #10
  call void @llvm.lifetime.end.p0(i64 8, ptr %6) #10
  call void @llvm.lifetime.end.p0(i64 8, ptr %5) #10
  call void @llvm.lifetime.end.p0(i64 8, ptr %4) #10
  call void @llvm.lifetime.end.p0(i64 4, ptr %3) #10
  ret void
}