; Function Attrs: nounwind uwtable
define void @cuddHashTableQuit(ptr noundef captures(none) %0) local_unnamed_addr #0 {
  %2 = getelementptr inbounds nuw i8, ptr %0, i64 48
  %3 = load ptr, ptr %2, align 8, !tbaa !60
  %4 = getelementptr inbounds nuw i8, ptr %0, i64 32
  %5 = load i32, ptr %4, align 8, !tbaa !62
  %.not40 = icmp eq i32 %5, 0
  br i1 %.not40, label %._crit_edge34, label %.lr.ph33

.lr.ph33:                                         ; preds = %1
  %6 = getelementptr inbounds nuw i8, ptr %0, i64 8
  %wide.trip.count = zext i32 %5 to i64
  br label %7

7:                                                ; preds = %.lr.ph33, %._crit_edge
  %indvars.iv = phi i64 [ 0, %.lr.ph33 ], [ %indvars.iv.next, %._crit_edge ]
  %8 = load ptr, ptr %6, align 8, !tbaa !64
  %9 = getelementptr inbounds nuw ptr, ptr %8, i64 %indvars.iv
  %.02228 = load ptr, ptr %9, align 8, !tbaa !67
  %.not2729 = icmp eq ptr %.02228, null
  br i1 %.not2729, label %._crit_edge, label %.lr.ph

.lr.ph:                                           ; preds = %7, %.lr.ph
  %.02230 = phi ptr [ %.022, %.lr.ph ], [ %.02228, %7 ]
  %10 = getelementptr inbounds nuw i8, ptr %.02230, i64 16
  %11 = load ptr, ptr %10, align 8, !tbaa !68
  tail call void @Cudd_RecursiveDeref(ptr noundef %3, ptr noundef %11) #13
  %.022 = load ptr, ptr %.02230, align 8, !tbaa !67
  %.not27 = icmp eq ptr %.022, null
  br i1 %.not27, label %._crit_edge, label %.lr.ph, !llvm.loop !70

._crit_edge:                                      ; preds = %.lr.ph, %7
  %indvars.iv.next = add nuw nsw i64 %indvars.iv, 1
  %exitcond.not = icmp eq i64 %indvars.iv.next, %wide.trip.count
  br i1 %exitcond.not, label %._crit_edge34, label %7, !llvm.loop !71

._crit_edge34:                                    ; preds = %._crit_edge, %1
  %12 = getelementptr inbounds nuw i8, ptr %0, i64 24
  %13 = load ptr, ptr %12, align 8, !tbaa !72
  %.not35 = icmp eq ptr %13, null
  br i1 %.not35, label %._crit_edge39, label %.lr.ph38

.lr.ph38:                                         ; preds = %._crit_edge34, %.lr.ph38
  %.02136 = phi ptr [ %14, %.lr.ph38 ], [ %13, %._crit_edge34 ]
  %14 = load ptr, ptr %.02136, align 8, !tbaa !67
  tail call void @free(ptr noundef nonnull %.02136) #13
  %.not = icmp eq ptr %14, null
  br i1 %.not, label %._crit_edge39, label %.lr.ph38, !llvm.loop !73

._crit_edge39:                                    ; preds = %.lr.ph38, %._crit_edge34
  %15 = getelementptr inbounds nuw i8, ptr %0, i64 8
  %16 = load ptr, ptr %15, align 8, !tbaa !64
  %.not25 = icmp eq ptr %16, null
  br i1 %.not25, label %18, label %17

17:                                               ; preds = %._crit_edge39
  tail call void @free(ptr noundef nonnull %16) #13
  br label %18

18:                                               ; preds = %._crit_edge39, %17
  tail call void @free(ptr noundef nonnull %0) #13
  ret void
}